; Function Attrs: nounwind uwtable
define noundef i32 @ossl_blake2b_init_key(ptr noundef captures(none) initializes((0, 240)) %0, ptr noundef readonly captures(none) %1, ptr noundef readonly captures(none) %2) local_unnamed_addr #5 {
  %4 = alloca [128 x i8], align 16
  %5 = getelementptr i8, ptr %0, i64 64
  tail call void @llvm.memset.p0.i64(ptr noundef nonnull align 8 dereferenceable(176) %5, i8 0, i64 176, i1 false)
  tail call void @llvm.memcpy.p0.p0.i64(ptr noundef nonnull align 8 dereferenceable(64) %0, ptr noundef nonnull align 16 dereferenceable(64) @blake2b_IV, i64 64, i1 false), !tbaa !10
  %6 = load i8, ptr %1, align 1, !tbaa !3
  %7 = zext i8 %6 to i64
  %8 = getelementptr inbounds nuw i8, ptr %0, i64 232
  store i64 %7, ptr %8, align 8, !tbaa !12
  br label %9

9:                                                ; preds = %9, %3
  %.09.i = phi i64 [ 0, %3 ], [ %15, %9 ]
  %10 = shl nuw nsw i64 %.09.i, 3
  %11 = getelementptr inbounds nuw i8, ptr %1, i64 %10
  %.val.i = load i64, ptr %11, align 1
  %12 = getelementptr inbounds nuw [8 x i64], ptr %0, i64 0, i64 %.09.i
  %13 = load i64, ptr %12, align 8, !tbaa !10
  %14 = xor i64 %13, %.val.i
  store i64 %14, ptr %12, align 8, !tbaa !10
  %15 = add nuw nsw i64 %.09.i, 1
  %exitcond.not.i = icmp eq i64 %15, 8
  br i1 %exitcond.not.i, label %blake2b_init_param.exit, label %9, !llvm.loop !14

blake2b_init_param.exit:                          ; preds = %9
  call void @llvm.lifetime.start.p0(i64 128, ptr nonnull %4) #9
  call void @llvm.memset.p0.i64(ptr noundef nonnull align 16 dereferenceable(128) %4, i8 0, i64 128, i1 false)
  %16 = getelementptr inbounds nuw i8, ptr %1, i64 1
  %17 = load i8, ptr %16, align 1, !tbaa !7
  %18 = zext i8 %17 to i64
  call void @llvm.memcpy.p0.p0.i64(ptr nonnull align 16 %4, ptr align 1 %2, i64 %18, i1 false)
  %19 = getelementptr inbounds nuw i8, ptr %0, i64 224
  %20 = load i64, ptr %19, align 8, !tbaa !16
  %21 = sub i64 128, %20
  %22 = icmp ult i64 %21, 128
  br i1 %22, label %23, label %ossl_blake2b_update.exit

23:                                               ; preds = %blake2b_init_param.exit
  %.not.i = icmp eq i64 %20, 0
  br i1 %.not.i, label %ossl_blake2b_update.exit, label %24

24:                                               ; preds = %23
  %25 = getelementptr inbounds nuw i8, ptr %0, i64 96
  %26 = getelementptr inbounds nuw i8, ptr %25, i64 %20
  call void @llvm.memcpy.p0.p0.i64(ptr nonnull align 1 %26, ptr nonnull readonly align 16 %4, i64 %21, i1 false)
  tail call fastcc void @blake2b_compress(ptr noundef nonnull %0, ptr noundef nonnull %25, i64 noundef 128)
  store i64 0, ptr %19, align 8, !tbaa !16
  %27 = getelementptr inbounds nuw i8, ptr %4, i64 %21
  %28 = icmp ugt i64 %20, 128
  br i1 %28, label %29, label %ossl_blake2b_update.exit

29:                                               ; preds = %24
  %30 = and i64 %20, 127
  %.not39.i = icmp eq i64 %30, 0
  %31 = select i1 %.not39.i, i64 128, i64 %30
  %32 = sub nuw i64 %20, %31
  call fastcc void @blake2b_compress(ptr noundef nonnull %0, ptr noundef nonnull %27, i64 noundef %32)
  %33 = getelementptr inbounds nuw i8, ptr %27, i64 %32
  %.pre.i = load i64, ptr %19, align 8, !tbaa !16
  br label %ossl_blake2b_update.exit

ossl_blake2b_update.exit:                         ; preds = %23, %blake2b_init_param.exit, %24, %29
  %34 = phi i64 [ %.pre.i, %29 ], [ 0, %24 ], [ %20, %blake2b_init_param.exit ], [ 0, %23 ]
  %.033.i = phi ptr [ %33, %29 ], [ %27, %24 ], [ %4, %blake2b_init_param.exit ], [ %4, %23 ]
  %.0.i = phi i64 [ %31, %29 ], [ %20, %24 ], [ 128, %blake2b_init_param.exit ], [ 128, %23 ]
  %35 = getelementptr inbounds nuw i8, ptr %0, i64 96
  %36 = getelementptr inbounds nuw i8, ptr %35, i64 %34
  call void @llvm.memcpy.p0.p0.i64(ptr nonnull align 1 %36, ptr nonnull align 1 %.033.i, i64 %.0.i, i1 false)
  %37 = load i64, ptr %19, align 8, !tbaa !16
  %38 = add i64 %37, %.0.i
  store i64 %38, ptr %19, align 8, !tbaa !16
  call void @OPENSSL_cleanse(ptr noundef nonnull %4, i64 noundef 128) #9
  call void @llvm.lifetime.end.p0(i64 128, ptr nonnull %4) #9
  ret i32 1
}